target datalayout = "e-m:e-p270:32:32-p271:32:32-p272:64:64-i64:64-i128:128-f80:128-n8:16:32:64-S128"
target triple = "x86_64-pc-linux-gnu"

%struct.cmsCIELab = type { double, double, double }

; Function Attrs: nounwind uwtable
define internal double @ab2float4(i16 noundef zeroext %0) #0 {
  %2 = alloca i16, align 2
  store i16 %0, ptr %2, align 2
  %3 = load i16, ptr %2, align 2
  %4 = uitofp i16 %3 to double
  %5 = fdiv double %4, 2.570000e+02
  %6 = fsub double %5, 1.280000e+02
  ret double %6
}

; Function Attrs: nounwind uwtable
define internal double @L2float4(i16 noundef zeroext %0) #0 {
  %2 = alloca i16, align 2
  store i16 %0, ptr %2, align 2
  %3 = load i16, ptr %2, align 2
  %4 = uitofp i16 %3 to double
  %5 = fdiv double %4, 6.553500e+02
  ret double %5
}

; Function Attrs: nounwind uwtable
define hidden void @cmsLabEncoded2Float(ptr noundef %0, ptr noundef %1) #0 {
  %3 = alloca ptr, align 8
  %4 = alloca ptr, align 8
  store ptr %0, ptr %3, align 8
  store ptr %1, ptr %4, align 8
  %5 = load ptr, ptr %4, align 8
  %6 = getelementptr inbounds i16, ptr %5, i64 0
  %7 = load i16, ptr %6, align 2
  %8 = call double @L2float4(i16 noundef zeroext %7)
  %9 = load ptr, ptr %3, align 8
  %10 = getelementptr inbounds %struct.cmsCIELab, ptr %9, i32 0, i32 0
  store double %8, ptr %10, align 8
  %11 = load ptr, ptr %4, align 8
  %12 = getelementptr inbounds i16, ptr %11, i64 1
  %13 = load i16, ptr %12, align 2
  %14 = call double @ab2float4(i16 noundef zeroext %13)
  %15 = load ptr, ptr %3, align 8
  %16 = getelementptr inbounds %struct.cmsCIELab, ptr %15, i32 0, i32 1
  store double %14, ptr %16, align 8
  %17 = load ptr, ptr %4, align 8
  %18 = getelementptr inbounds i16, ptr %17, i64 2
  %19 = load i16, ptr %18, align 2
  %20 = call double @ab2float4(i16 noundef zeroext %19)
  %21 = load ptr, ptr %3, align 8
  %22 = getelementptr inbounds %struct.cmsCIELab, ptr %21, i32 0, i32 2
  store double %20, ptr %22, align 8
  ret void
}