; Function Attrs: mustprogress nofree norecurse nosync nounwind willreturn memory(argmem: readwrite) uwtable
define hidden void @cmsLabEncoded2Float(ptr nocapture noundef writeonly %0, ptr nocapture noundef readonly %1) local_unnamed_addr #0 {
  %3 = load i16, ptr %1, align 2
  %4 = uitofp i16 %3 to double
  %5 = fdiv double %4, 6.553500e+02
  store double %5, ptr %0, align 8
  %6 = getelementptr inbounds i8, ptr %1, i64 2
  %7 = load i16, ptr %6, align 2
  %8 = uitofp i16 %7 to double
  %9 = fdiv double %8, 2.570000e+02
  %10 = fadd double %9, -1.280000e+02
  %11 = getelementptr inbounds i8, ptr %0, i64 8
  store double %10, ptr %11, align 8
  %12 = getelementptr inbounds i8, ptr %1, i64 4
  %13 = load i16, ptr %12, align 2
  %14 = uitofp i16 %13 to double
  %15 = fdiv double %14, 2.570000e+02
  %16 = fadd double %15, -1.280000e+02
  %17 = getelementptr inbounds i8, ptr %0, i64 16
  store double %16, ptr %17, align 8
  ret void
}